; Function Attrs: mustprogress nofree norecurse nosync nounwind willreturn memory(argmem: readwrite) uwtable
define noalias noundef ptr @_ZNK6icu_7724WholeStringBreakIterator8getUTextEP5UTextR10UErrorCode(ptr nonnull readnone align 8 captures(none) %0, ptr readnone captures(none) %1, ptr noundef nonnull align 4 captures(none) dereferenceable(4) %2) unnamed_addr #5 align 2 {
  %4 = load i32, ptr %2, align 4, !tbaa !3
  %5 = icmp sgt i32 %4, 0
  br i1 %5, label %7, label %6

6:                                                ; preds = %3
  store i32 16, ptr %2, align 4, !tbaa !3
  br label %7

7:                                                ; preds = %6, %3
  ret ptr null
}